; Function Attrs: mustprogress uwtable
define void @_ZN4toku16locktree_manager16locktree_map_putEPNS_8locktreeE(ptr noundef nonnull align 8 dereferenceable(392) %0, ptr noundef nonnull %1) local_unnamed_addr #0 align 2 {
  %3 = alloca ptr, align 8
  %4 = alloca %struct.DICTIONARY_ID, align 8
  store ptr %1, ptr %3, align 8, !tbaa !46
  %5 = getelementptr inbounds nuw i8, ptr %0, i64 88
  call void @llvm.lifetime.start.p0(i64 8, ptr nonnull %4) #14
  %6 = tail call i64 @_ZNK4toku8locktree11get_dict_idEv(ptr noundef nonnull align 8 dereferenceable(400) %1)
  store i64 %6, ptr %4, align 8
  %7 = call noundef i32 @_ZN4toku3omtIPNS_8locktreeES2_Lb0EE6insertI13DICTIONARY_IDTnPFiRKS2_RKT_EXadL_ZNS_16locktree_manager15find_by_dict_idES7_RKS5_EEEEiS7_SA_Pj(ptr noundef nonnull align 8 dereferenceable(24) %5, ptr noundef nonnull align 8 dereferenceable(8) %3, ptr noundef nonnull align 8 dereferenceable(8) %4, ptr noundef null)
  call void @llvm.lifetime.end.p0(i64 8, ptr nonnull %4) #14
  ret void
}